target datalayout = "e-m:e-p270:32:32-p271:32:32-p272:64:64-i64:64-i128:128-f80:128-n8:16:32:64-S128"
target triple = "x86_64-pc-linux-gnu"

%struct.dictEntry = type { ptr, %union.anon, ptr }
%union.anon = type { ptr }

@.str.1 = private unnamed_addr constant [7 x i8] c"dict.c\00", align 1
@.str.9 = private unnamed_addr constant [18 x i8] c"entryHasValue(de)\00", align 1

; Function Attrs: inlinehint nounwind uwtable
define internal i32 @entryIsNormal(ptr noundef %0) #11 {
  %2 = alloca ptr, align 8
  store ptr %0, ptr %2, align 8, !tbaa !36
  %3 = load ptr, ptr %2, align 8, !tbaa !36
  %4 = ptrtoint ptr %3 to i64
  %5 = and i64 %4, 7
  %6 = icmp eq i64 %5, 0
  %7 = zext i1 %6 to i32
  ret i32 %7
}

; Function Attrs: inlinehint nounwind uwtable
define internal i32 @entryHasValue(ptr noundef %0) #11 {
  %2 = alloca ptr, align 8
  store ptr %0, ptr %2, align 8, !tbaa !36
  %3 = load ptr, ptr %2, align 8, !tbaa !36
  %4 = call i32 @entryIsNormal(ptr noundef %3)
  ret i32 %4
}

; Function Attrs: nounwind uwtable
define dso_local i64 @dictIncrSignedIntegerVal(ptr noundef %0, i64 noundef %1) #0 {
  %3 = alloca ptr, align 8
  %4 = alloca i64, align 8
  store ptr %0, ptr %3, align 8, !tbaa !36
  store i64 %1, ptr %4, align 8, !tbaa !11
  %5 = load ptr, ptr %3, align 8, !tbaa !36
  %6 = call i32 @entryHasValue(ptr noundef %5)
  %7 = icmp ne i32 %6, 0
  %8 = xor i1 %7, true
  %9 = xor i1 %8, true
  %10 = zext i1 %9 to i32
  %11 = sext i32 %10 to i64
  %12 = call i64 @llvm.expect.i64(i64 %11, i64 1)
  %13 = icmp ne i64 %12, 0
  br i1 %13, label %14, label %15

14:                                               ; preds = %2
  br label %17

15:                                               ; preds = %2
  call void @_serverAssert(ptr noundef @.str.9, ptr noundef @.str.1, i32 noundef 903)
  call void @abort() #17
  unreachable

16:                                               ; No predecessors!
  br label %17

17:                                               ; preds = %16, %14
  %18 = load i64, ptr %4, align 8, !tbaa !11
  %19 = load ptr, ptr %3, align 8, !tbaa !36
  %20 = getelementptr inbounds nuw %struct.dictEntry, ptr %19, i32 0, i32 1
  %21 = load i64, ptr %20, align 8, !tbaa !25
  %22 = add nsw i64 %21, %18
  store i64 %22, ptr %20, align 8, !tbaa !25
  ret i64 %22
}